; ModuleID = '10/2303.c'
source_filename = "10/2303.c"
target datalayout = "e-m:e-p270:32:32-p271:32:32-p272:64:64-i64:64-f80:128-n8:16:32:64-S128"
target triple = "x86_64-pc-linux-gnu"

%struct.a = type { i32, i32 }

@.str = private unnamed_addr constant [3 x i8] c"%d\00", align 1

; Function Attrs: noinline nounwind uwtable
define dso_local i32 @main() #0 {
  %1 = alloca i32, align 4
  %2 = alloca i32, align 4
  %3 = alloca i32, align 4
  %4 = alloca [25 x %struct.a], align 16
  %5 = alloca i32, align 4
  %6 = alloca i32, align 4
  %7 = alloca i32, align 4
  %8 = alloca i32, align 4
  store i32 0, i32* %1, align 4
  %9 = call i32 (i8*, ...) @__isoc99_scanf(i8* getelementptr inbounds ([3 x i8], [3 x i8]* @.str, i64 0, i64 0), i32* %2)
  store i32 0, i32* %3, align 4
  br label %10

10:                                               ; preds = %20, %0
  %11 = load i32, i32* %3, align 4
  %12 = load i32, i32* %2, align 4
  %13 = icmp slt i32 %11, %12
  br i1 %13, label %14, label %23

14:                                               ; preds = %10
  %15 = load i32, i32* %3, align 4
  %16 = sext i32 %15 to i64
  %17 = getelementptr inbounds [25 x %struct.a], [25 x %struct.a]* %4, i64 0, i64 %16
  %18 = getelementptr inbounds %struct.a, %struct.a* %17, i32 0, i32 0
  %19 = call i32 (i8*, ...) @__isoc99_scanf(i8* getelementptr inbounds ([3 x i8], [3 x i8]* @.str, i64 0, i64 0), i32* %18)
  br label %20

20:                                               ; preds = %14
  %21 = load i32, i32* %3, align 4
  %22 = add nsw i32 %21, 1
  store i32 %22, i32* %3, align 4
  br label %10

23:                                               ; preds = %10
  store i32 0, i32* %5, align 4
  store i32 0, i32* %6, align 4
  br label %24

24:                                               ; preds = %60, %23
  %25 = load i32, i32* %6, align 4
  %26 = load i32, i32* %2, align 4
  %27 = icmp slt i32 %25, %26
  br i1 %27, label %28, label %63

28:                                               ; preds = %24
  store i32 0, i32* %7, align 4
  %29 = load i32, i32* %6, align 4
  %30 = add nsw i32 %29, 1
  store i32 %30, i32* %3, align 4
  br label %31

31:                                               ; preds = %51, %28
  %32 = load i32, i32* %3, align 4
  %33 = load i32, i32* %2, align 4
  %34 = icmp slt i32 %32, %33
  br i1 %34, label %35, label %54

35:                                               ; preds = %31
  %36 = load i32, i32* %3, align 4
  %37 = sext i32 %36 to i64
  %38 = getelementptr inbounds [25 x %struct.a], [25 x %struct.a]* %4, i64 0, i64 %37
  %39 = getelementptr inbounds %struct.a, %struct.a* %38, i32 0, i32 0
  %40 = load i32, i32* %39, align 8
  %41 = load i32, i32* %6, align 4
  %42 = sext i32 %41 to i64
  %43 = getelementptr inbounds [25 x %struct.a], [25 x %struct.a]* %4, i64 0, i64 %42
  %44 = getelementptr inbounds %struct.a, %struct.a* %43, i32 0, i32 0
  %45 = load i32, i32* %44, align 8
  %46 = icmp slt i32 %40, %45
  br i1 %46, label %47, label %50

47:                                               ; preds = %35
  %48 = load i32, i32* %7, align 4
  %49 = add nsw i32 %48, 1
  store i32 %49, i32* %7, align 4
  br label %50

50:                                               ; preds = %47, %35
  br label %51

51:                                               ; preds = %50
  %52 = load i32, i32* %3, align 4
  %53 = add nsw i32 %52, 1
  store i32 %53, i32* %3, align 4
  br label %31

54:                                               ; preds = %31
  %55 = load i32, i32* %7, align 4
  %56 = load i32, i32* %6, align 4
  %57 = sext i32 %56 to i64
  %58 = getelementptr inbounds [25 x %struct.a], [25 x %struct.a]* %4, i64 0, i64 %57
  %59 = getelementptr inbounds %struct.a, %struct.a* %58, i32 0, i32 1
  store i32 %55, i32* %59, align 4
  br label %60

60:                                               ; preds = %54
  %61 = load i32, i32* %6, align 4
  %62 = add nsw i32 %61, 1
  store i32 %62, i32* %6, align 4
  br label %24

63:                                               ; preds = %24
  %64 = load i32, i32* %2, align 4
  %65 = sub nsw i32 %64, 1
  store i32 %65, i32* %3, align 4
  br label %66

66:                                               ; preds = %97, %63
  %67 = load i32, i32* %3, align 4
  %68 = icmp sge i32 %67, 1
  br i1 %68, label %69, label %100

69:                                               ; preds = %66
  %70 = load i32, i32* %3, align 4
  %71 = sub nsw i32 %70, 1
  %72 = sext i32 %71 to i64
  %73 = getelementptr inbounds [25 x %struct.a], [25 x %struct.a]* %4, i64 0, i64 %72
  %74 = getelementptr inbounds %struct.a, %struct.a* %73, i32 0, i32 1
  %75 = load i32, i32* %74, align 4
  %76 = load i32, i32* %3, align 4
  %77 = sext i32 %76 to i64
  %78 = getelementptr inbounds [25 x %struct.a], [25 x %struct.a]* %4, i64 0, i64 %77
  %79 = getelementptr inbounds %struct.a, %struct.a* %78, i32 0, i32 1
  %80 = load i32, i32* %79, align 4
  %81 = add nsw i32 %80, 1
  %82 = icmp slt i32 %75, %81
  br i1 %82, label %83, label %96

83:                                               ; preds = %69
  %84 = load i32, i32* %3, align 4
  %85 = sext i32 %84 to i64
  %86 = getelementptr inbounds [25 x %struct.a], [25 x %struct.a]* %4, i64 0, i64 %85
  %87 = getelementptr inbounds %struct.a, %struct.a* %86, i32 0, i32 1
  %88 = load i32, i32* %87, align 4
  %89 = load i32, i32* %3, align 4
  %90 = sub nsw i32 %89, 1
  %91 = sext i32 %90 to i64
  %92 = getelementptr inbounds [25 x %struct.a], [25 x %struct.a]* %4, i64 0, i64 %91
  %93 = getelementptr inbounds %struct.a, %struct.a* %92, i32 0, i32 1
  store i32 %88, i32* %93, align 4
  %94 = load i32, i32* %8, align 4
  %95 = add nsw i32 %94, 1
  store i32 %95, i32* %8, align 4
  br label %96

96:                                               ; preds = %83, %69
  br label %97

97:                                               ; preds = %96
  %98 = load i32, i32* %3, align 4
  %99 = add nsw i32 %98, -1
  store i32 %99, i32* %3, align 4
  br label %66

100:                                              ; preds = %66
  %101 = load i32, i32* %2, align 4
  %102 = load i32, i32* %8, align 4
  %103 = sub nsw i32 %101, %102
  %104 = call i32 (i8*, ...) @printf(i8* getelementptr inbounds ([3 x i8], [3 x i8]* @.str, i64 0, i64 0), i32 %103)
  ret i32 0
}

declare dso_local i32 @__isoc99_scanf(i8*, ...) #1

declare dso_local i32 @printf(i8*, ...) #1


!llvm.module.flags = !{!0}
!llvm.ident = !{!1}

!0 = !{i32 1, !"wchar_size", i32 4}
!1 = !{!"clang version 10.0.0-4ubuntu1 "}
